target datalayout = "e-m:e-p270:32:32-p271:32:32-p272:64:64-i64:64-i128:128-f80:128-n8:16:32:64-S128"
target triple = "x86_64-pc-linux-gnu"

%struct.zmq_msg_t = type { [64 x i8] }
%struct.iovec = type { ptr, i64 }

@stderr = external global ptr, align 8
@.str = private unnamed_addr constant [12 x i8] c"%s (%s:%d)\0A\00", align 1
@.str.1 = private unnamed_addr constant [103 x i8] c"generated/home/dtcxzyw/WorkSpace/Projects/compilers/llvm-opt-benchmark/bench/libzmq/libzmq/src/zmq.cpp\00", align 1

; Function Attrs: mustprogress uwtable
define ptr @zmq_msg_data(ptr noundef %0) #1 {
  %2 = alloca ptr, align 8
  store ptr %0, ptr %2, align 8, !tbaa !23
  %3 = load ptr, ptr %2, align 8, !tbaa !23
  %4 = call noundef ptr @_ZN3zmq5msg_t4dataEv(ptr noundef nonnull align 8 dereferenceable(64) %3)
  ret ptr %4
}

; Function Attrs: mustprogress uwtable
define i64 @zmq_msg_size(ptr noundef %0) #1 {
  %2 = alloca ptr, align 8
  store ptr %0, ptr %2, align 8, !tbaa !23
  %3 = load ptr, ptr %2, align 8, !tbaa !23
  %4 = call noundef i64 @_ZNK3zmq5msg_t4sizeEv(ptr noundef nonnull align 8 dereferenceable(64) %3)
  ret i64 %4
}

; Function Attrs: mustprogress uwtable
define i32 @zmq_msg_close(ptr noundef %0) #1 {
  %2 = alloca ptr, align 8
  store ptr %0, ptr %2, align 8, !tbaa !23
  %3 = load ptr, ptr %2, align 8, !tbaa !23
  %4 = call noundef i32 @_ZN3zmq5msg_t5closeEv(ptr noundef nonnull align 8 dereferenceable(64) %3)
  ret i32 %4
}

; Function Attrs: mustprogress uwtable
define internal noundef i32 @_ZL9s_recvmsgPN3zmq13socket_base_tEP9zmq_msg_ti(ptr noundef %0, ptr noundef %1, i32 noundef %2) #1 {
  %4 = alloca i32, align 4
  %5 = alloca ptr, align 8
  %6 = alloca ptr, align 8
  %7 = alloca i32, align 4
  %8 = alloca i32, align 4
  %9 = alloca i32, align 4
  %10 = alloca i64, align 8
  store ptr %0, ptr %5, align 8, !tbaa !17
  store ptr %1, ptr %6, align 8, !tbaa !23
  store i32 %2, ptr %7, align 4, !tbaa !8
  call void @llvm.lifetime.start.p0(i64 4, ptr %8) #20
  %11 = load ptr, ptr %5, align 8, !tbaa !17
  %12 = load ptr, ptr %6, align 8, !tbaa !23
  %13 = load i32, ptr %7, align 4, !tbaa !8
  %14 = call noundef i32 @_ZN3zmq13socket_base_t4recvEPNS_5msg_tEi(ptr noundef nonnull align 8 dereferenceable(1825) %11, ptr noundef %12, i32 noundef %13)
  store i32 %14, ptr %8, align 4, !tbaa !8
  %15 = load i32, ptr %8, align 4, !tbaa !8
  %16 = icmp slt i32 %15, 0
  %17 = zext i1 %16 to i64
  %18 = call i64 @llvm.expect.i64(i64 %17, i64 0)
  %19 = icmp ne i64 %18, 0
  br i1 %19, label %20, label %21

20:                                               ; preds = %3
  store i32 -1, ptr %4, align 4
  store i32 1, ptr %9, align 4
  br label %32

21:                                               ; preds = %3
  call void @llvm.lifetime.start.p0(i64 8, ptr %10) #20
  %22 = load ptr, ptr %6, align 8, !tbaa !23
  %23 = call i64 @zmq_msg_size(ptr noundef %22)
  store i64 %23, ptr %10, align 8, !tbaa !13
  %24 = load i64, ptr %10, align 8, !tbaa !13
  %25 = icmp ult i64 %24, 2147483647
  br i1 %25, label %26, label %28

26:                                               ; preds = %21
  %27 = load i64, ptr %10, align 8, !tbaa !13
  br label %29

28:                                               ; preds = %21
  br label %29

29:                                               ; preds = %28, %26
  %30 = phi i64 [ %27, %26 ], [ 2147483647, %28 ]
  %31 = trunc i64 %30 to i32
  store i32 %31, ptr %4, align 4
  store i32 1, ptr %9, align 4
  call void @llvm.lifetime.end.p0(i64 8, ptr %10) #20
  br label %32

32:                                               ; preds = %29, %20
  call void @llvm.lifetime.end.p0(i64 4, ptr %8) #20
  %33 = load i32, ptr %4, align 4
  ret i32 %33
}

; Function Attrs: mustprogress uwtable
define i32 @zmq_msg_init(ptr noundef %0) #1 {
  %2 = alloca ptr, align 8
  store ptr %0, ptr %2, align 8, !tbaa !23
  %3 = load ptr, ptr %2, align 8, !tbaa !23
  %4 = call noundef i32 @_ZN3zmq5msg_t4initEv(ptr noundef nonnull align 8 dereferenceable(64) %3)
  ret i32 %4
}

; Function Attrs: mustprogress uwtable
define internal noundef ptr @_ZL16as_socket_base_tPv(ptr noundef %0) #1 {
  %2 = alloca ptr, align 8
  %3 = alloca ptr, align 8
  %4 = alloca ptr, align 8
  %5 = alloca i32, align 4
  store ptr %0, ptr %3, align 8, !tbaa !12
  call void @llvm.lifetime.start.p0(i64 8, ptr %4) #20
  %6 = load ptr, ptr %3, align 8, !tbaa !12
  store ptr %6, ptr %4, align 8, !tbaa !17
  %7 = load ptr, ptr %3, align 8, !tbaa !12
  %8 = icmp ne ptr %7, null
  br i1 %8, label %9, label %12

9:                                                ; preds = %1
  %10 = load ptr, ptr %4, align 8, !tbaa !17
  %11 = call noundef zeroext i1 @_ZNK3zmq13socket_base_t9check_tagEv(ptr noundef nonnull align 8 dereferenceable(1825) %10)
  br i1 %11, label %14, label %12

12:                                               ; preds = %9, %1
  %13 = call ptr @__errno_location() #19
  store i32 88, ptr %13, align 4, !tbaa !8
  store ptr null, ptr %2, align 8
  store i32 1, ptr %5, align 4
  br label %16

14:                                               ; preds = %9
  %15 = load ptr, ptr %4, align 8, !tbaa !17
  store ptr %15, ptr %2, align 8
  store i32 1, ptr %5, align 4
  br label %16

16:                                               ; preds = %14, %12
  call void @llvm.lifetime.end.p0(i64 8, ptr %4) #20
  %17 = load ptr, ptr %2, align 8
  ret ptr %17
}

; Function Attrs: mustprogress uwtable
define i32 @zmq_recviov(ptr noundef %0, ptr noundef %1, ptr noundef %2, i32 noundef %3) #1 {
  %5 = alloca i32, align 4
  %6 = alloca ptr, align 8
  %7 = alloca ptr, align 8
  %8 = alloca ptr, align 8
  %9 = alloca i32, align 4
  %10 = alloca ptr, align 8
  %11 = alloca i32, align 4
  %12 = alloca i64, align 8
  %13 = alloca i32, align 4
  %14 = alloca i8, align 1
  %15 = alloca i64, align 8
  %16 = alloca %struct.zmq_msg_t, align 8
  %17 = alloca i32, align 4
  %18 = alloca ptr, align 8
  %19 = alloca i32, align 4
  %20 = alloca i32, align 4
  %21 = alloca ptr, align 8
  %22 = alloca ptr, align 8
  %23 = alloca ptr, align 8
  store ptr %0, ptr %6, align 8, !tbaa !12
  store ptr %1, ptr %7, align 8, !tbaa !27
  store ptr %2, ptr %8, align 8, !tbaa !15
  store i32 %3, ptr %9, align 4, !tbaa !8
  call void @llvm.lifetime.start.p0(i64 8, ptr %10) #20
  %24 = load ptr, ptr %6, align 8, !tbaa !12
  %25 = call noundef ptr @_ZL16as_socket_base_tPv(ptr noundef %24)
  store ptr %25, ptr %10, align 8, !tbaa !17
  %26 = load ptr, ptr %10, align 8, !tbaa !17
  %27 = icmp ne ptr %26, null
  br i1 %27, label %29, label %28

28:                                               ; preds = %4
  store i32 -1, ptr %5, align 4
  store i32 1, ptr %11, align 4
  br label %200

29:                                               ; preds = %4
  %30 = load ptr, ptr %8, align 8, !tbaa !15
  %31 = icmp ne ptr %30, null
  br i1 %31, label %32, label %40

32:                                               ; preds = %29
  %33 = load ptr, ptr %8, align 8, !tbaa !15
  %34 = load i64, ptr %33, align 8, !tbaa !13
  %35 = icmp ule i64 %34, 0
  br i1 %35, label %40, label %36

36:                                               ; preds = %32
  %37 = load ptr, ptr %7, align 8, !tbaa !27
  %38 = icmp ne ptr %37, null
  %39 = xor i1 %38, true
  br label %40

40:                                               ; preds = %36, %32, %29
  %41 = phi i1 [ true, %32 ], [ true, %29 ], [ %39, %36 ]
  %42 = zext i1 %41 to i64
  %43 = call i64 @llvm.expect.i64(i64 %42, i64 0)
  %44 = icmp ne i64 %43, 0
  br i1 %44, label %45, label %47

45:                                               ; preds = %40
  %46 = call ptr @__errno_location() #19
  store i32 22, ptr %46, align 4, !tbaa !8
  store i32 -1, ptr %5, align 4
  store i32 1, ptr %11, align 4
  br label %200

47:                                               ; preds = %40
  call void @llvm.lifetime.start.p0(i64 8, ptr %12) #20
  %48 = load ptr, ptr %8, align 8, !tbaa !15
  %49 = load i64, ptr %48, align 8, !tbaa !13
  store i64 %49, ptr %12, align 8, !tbaa !13
  call void @llvm.lifetime.start.p0(i64 4, ptr %13) #20
  store i32 0, ptr %13, align 4, !tbaa !8
  call void @llvm.lifetime.start.p0(i64 1, ptr %14) #20
  store i8 1, ptr %14, align 1, !tbaa !34
  %50 = load ptr, ptr %8, align 8, !tbaa !15
  store i64 0, ptr %50, align 8, !tbaa !13
  call void @llvm.lifetime.start.p0(i64 8, ptr %15) #20
  store i64 0, ptr %15, align 8, !tbaa !13
  br label %51

51:                                               ; preds = %192, %47
  %52 = load i8, ptr %14, align 1, !tbaa !34, !range !36, !noundef !37
  %53 = trunc i8 %52 to i1
  br i1 %53, label %54, label %58

54:                                               ; preds = %51
  %55 = load i64, ptr %15, align 8, !tbaa !13
  %56 = load i64, ptr %12, align 8, !tbaa !13
  %57 = icmp ult i64 %55, %56
  br label %58

58:                                               ; preds = %54, %51
  %59 = phi i1 [ false, %51 ], [ %57, %54 ]
  br i1 %59, label %61, label %60

60:                                               ; preds = %58
  store i32 2, ptr %11, align 4
  br label %195

61:                                               ; preds = %58
  call void @llvm.lifetime.start.p0(i64 64, ptr %16) #20
  call void @llvm.lifetime.start.p0(i64 4, ptr %17) #20
  %62 = call i32 @zmq_msg_init(ptr noundef %16)
  store i32 %62, ptr %17, align 4, !tbaa !8
  br label %63

63:                                               ; preds = %61
  %64 = load i32, ptr %17, align 4, !tbaa !8
  %65 = icmp eq i32 %64, 0
  %66 = xor i1 %65, true
  %67 = zext i1 %66 to i64
  %68 = call i64 @llvm.expect.i64(i64 %67, i64 0)
  %69 = icmp ne i64 %68, 0
  br i1 %69, label %70, label %80

70:                                               ; preds = %63
  call void @llvm.lifetime.start.p0(i64 8, ptr %18) #20
  %71 = call ptr @__errno_location() #19
  %72 = load i32, ptr %71, align 4, !tbaa !8
  %73 = call ptr @strerror(i32 noundef %72) #20
  store ptr %73, ptr %18, align 8, !tbaa !19
  %74 = load ptr, ptr @stderr, align 8, !tbaa !25
  %75 = load ptr, ptr %18, align 8, !tbaa !19
  %76 = call i32 (ptr, ptr, ...) @fprintf(ptr noundef %74, ptr noundef @.str, ptr noundef %75, ptr noundef @.str.1, i32 noundef 554) #20
  %77 = load ptr, ptr @stderr, align 8, !tbaa !25
  %78 = call i32 @fflush(ptr noundef %77)
  %79 = load ptr, ptr %18, align 8, !tbaa !19
  call void @_ZN3zmq9zmq_abortEPKc(ptr noundef %79)
  call void @llvm.lifetime.end.p0(i64 8, ptr %18) #20
  br label %80

80:                                               ; preds = %70, %63
  br label %81

81:                                               ; preds = %80
  br label %82

82:                                               ; preds = %81
  call void @llvm.lifetime.start.p0(i64 4, ptr %19) #20
  %83 = load ptr, ptr %10, align 8, !tbaa !17
  %84 = load i32, ptr %9, align 4, !tbaa !8
  %85 = call noundef i32 @_ZL9s_recvmsgPN3zmq13socket_base_tEP9zmq_msg_ti(ptr noundef %83, ptr noundef %16, i32 noundef %84)
  store i32 %85, ptr %19, align 4, !tbaa !8
  %86 = load i32, ptr %19, align 4, !tbaa !8
  %87 = icmp slt i32 %86, 0
  %88 = zext i1 %87 to i64
  %89 = call i64 @llvm.expect.i64(i64 %88, i64 0)
  %90 = icmp ne i64 %89, 0
  br i1 %90, label %91, label %117

91:                                               ; preds = %82
  call void @llvm.lifetime.start.p0(i64 4, ptr %20) #20
  %92 = call ptr @__errno_location() #19
  %93 = load i32, ptr %92, align 4, !tbaa !8
  store i32 %93, ptr %20, align 4, !tbaa !8
  %94 = call i32 @zmq_msg_close(ptr noundef %16)
  store i32 %94, ptr %17, align 4, !tbaa !8
  br label %95

95:                                               ; preds = %91
  %96 = load i32, ptr %17, align 4, !tbaa !8
  %97 = icmp eq i32 %96, 0
  %98 = xor i1 %97, true
  %99 = zext i1 %98 to i64
  %100 = call i64 @llvm.expect.i64(i64 %99, i64 0)
  %101 = icmp ne i64 %100, 0
  br i1 %101, label %102, label %112

102:                                              ; preds = %95
  call void @llvm.lifetime.start.p0(i64 8, ptr %21) #20
  %103 = call ptr @__errno_location() #19
  %104 = load i32, ptr %103, align 4, !tbaa !8
  %105 = call ptr @strerror(i32 noundef %104) #20
  store ptr %105, ptr %21, align 8, !tbaa !19
  %106 = load ptr, ptr @stderr, align 8, !tbaa !25
  %107 = load ptr, ptr %21, align 8, !tbaa !19
  %108 = call i32 (ptr, ptr, ...) @fprintf(ptr noundef %106, ptr noundef @.str, ptr noundef %107, ptr noundef @.str.1, i32 noundef 560) #20
  %109 = load ptr, ptr @stderr, align 8, !tbaa !25
  %110 = call i32 @fflush(ptr noundef %109)
  %111 = load ptr, ptr %21, align 8, !tbaa !19
  call void @_ZN3zmq9zmq_abortEPKc(ptr noundef %111)
  call void @llvm.lifetime.end.p0(i64 8, ptr %21) #20
  br label %112

112:                                              ; preds = %102, %95
  br label %113

113:                                              ; preds = %112
  br label %114

114:                                              ; preds = %113
  %115 = load i32, ptr %20, align 4, !tbaa !8
  %116 = call ptr @__errno_location() #19
  store i32 %115, ptr %116, align 4, !tbaa !8
  store i32 -1, ptr %13, align 4, !tbaa !8
  store i32 2, ptr %11, align 4
  call void @llvm.lifetime.end.p0(i64 4, ptr %20) #20
  br label %189

117:                                              ; preds = %82
  %118 = call i64 @zmq_msg_size(ptr noundef %16)
  %119 = load ptr, ptr %7, align 8, !tbaa !27
  %120 = load i64, ptr %15, align 8, !tbaa !13
  %121 = getelementptr inbounds nuw %struct.iovec, ptr %119, i64 %120
  %122 = getelementptr inbounds nuw %struct.iovec, ptr %121, i32 0, i32 1
  store i64 %118, ptr %122, align 8, !tbaa !29
  %123 = load ptr, ptr %7, align 8, !tbaa !27
  %124 = load i64, ptr %15, align 8, !tbaa !13
  %125 = getelementptr inbounds nuw %struct.iovec, ptr %123, i64 %124
  %126 = getelementptr inbounds nuw %struct.iovec, ptr %125, i32 0, i32 1
  %127 = load i64, ptr %126, align 8, !tbaa !29
  %128 = call noalias ptr @malloc(i64 noundef %127) #23
  %129 = load ptr, ptr %7, align 8, !tbaa !27
  %130 = load i64, ptr %15, align 8, !tbaa !13
  %131 = getelementptr inbounds nuw %struct.iovec, ptr %129, i64 %130
  %132 = getelementptr inbounds nuw %struct.iovec, ptr %131, i32 0, i32 0
  store ptr %128, ptr %132, align 8, !tbaa !31
  %133 = load ptr, ptr %7, align 8, !tbaa !27
  %134 = load i64, ptr %15, align 8, !tbaa !13
  %135 = getelementptr inbounds nuw %struct.iovec, ptr %133, i64 %134
  %136 = getelementptr inbounds nuw %struct.iovec, ptr %135, i32 0, i32 0
  %137 = load ptr, ptr %136, align 8, !tbaa !31
  %138 = icmp ne ptr %137, null
  %139 = xor i1 %138, true
  %140 = zext i1 %139 to i64
  %141 = call i64 @llvm.expect.i64(i64 %140, i64 0)
  %142 = icmp ne i64 %141, 0
  br i1 %142, label %143, label %145

143:                                              ; preds = %117
  %144 = call ptr @__errno_location() #19
  store i32 12, ptr %144, align 4, !tbaa !8
  store i32 -1, ptr %5, align 4
  store i32 1, ptr %11, align 4
  br label %189

145:                                              ; preds = %117
  %146 = load ptr, ptr %7, align 8, !tbaa !27
  %147 = load i64, ptr %15, align 8, !tbaa !13
  %148 = getelementptr inbounds nuw %struct.iovec, ptr %146, i64 %147
  %149 = getelementptr inbounds nuw %struct.iovec, ptr %148, i32 0, i32 0
  %150 = load ptr, ptr %149, align 8, !tbaa !31
  %151 = call ptr @zmq_msg_data(ptr noundef %16)
  %152 = load ptr, ptr %7, align 8, !tbaa !27
  %153 = load i64, ptr %15, align 8, !tbaa !13
  %154 = getelementptr inbounds nuw %struct.iovec, ptr %152, i64 %153
  %155 = getelementptr inbounds nuw %struct.iovec, ptr %154, i32 0, i32 1
  %156 = load i64, ptr %155, align 8, !tbaa !29
  call void @llvm.memcpy.p0.p0.i64(ptr align 1 %150, ptr align 1 %151, i64 %156, i1 false)
  call void @llvm.lifetime.start.p0(i64 8, ptr %22) #20
  store ptr %16, ptr %22, align 8, !tbaa !38
  %157 = load ptr, ptr %22, align 8, !tbaa !38
  %158 = call noundef zeroext i8 @_ZNK3zmq5msg_t5flagsEv(ptr noundef nonnull align 8 dereferenceable(64) %157)
  %159 = zext i8 %158 to i32
  %160 = and i32 %159, 1
  %161 = icmp ne i32 %160, 0
  %162 = zext i1 %161 to i8
  store i8 %162, ptr %14, align 1, !tbaa !34
  %163 = call i32 @zmq_msg_close(ptr noundef %16)
  store i32 %163, ptr %17, align 4, !tbaa !8
  br label %164

164:                                              ; preds = %145
  %165 = load i32, ptr %17, align 4, !tbaa !8
  %166 = icmp eq i32 %165, 0
  %167 = xor i1 %166, true
  %168 = zext i1 %167 to i64
  %169 = call i64 @llvm.expect.i64(i64 %168, i64 0)
  %170 = icmp ne i64 %169, 0
  br i1 %170, label %171, label %181

171:                                              ; preds = %164
  call void @llvm.lifetime.start.p0(i64 8, ptr %23) #20
  %172 = call ptr @__errno_location() #19
  %173 = load i32, ptr %172, align 4, !tbaa !8
  %174 = call ptr @strerror(i32 noundef %173) #20
  store ptr %174, ptr %23, align 8, !tbaa !19
  %175 = load ptr, ptr @stderr, align 8, !tbaa !25
  %176 = load ptr, ptr %23, align 8, !tbaa !19
  %177 = call i32 (ptr, ptr, ...) @fprintf(ptr noundef %175, ptr noundef @.str, ptr noundef %176, ptr noundef @.str.1, i32 noundef 578) #20
  %178 = load ptr, ptr @stderr, align 8, !tbaa !25
  %179 = call i32 @fflush(ptr noundef %178)
  %180 = load ptr, ptr %23, align 8, !tbaa !19
  call void @_ZN3zmq9zmq_abortEPKc(ptr noundef %180)
  call void @llvm.lifetime.end.p0(i64 8, ptr %23) #20
  br label %181

181:                                              ; preds = %171, %164
  br label %182

182:                                              ; preds = %181
  br label %183

183:                                              ; preds = %182
  %184 = load ptr, ptr %8, align 8, !tbaa !15
  %185 = load i64, ptr %184, align 8, !tbaa !13
  %186 = add i64 %185, 1
  store i64 %186, ptr %184, align 8, !tbaa !13
  %187 = load i32, ptr %13, align 4, !tbaa !8
  %188 = add nsw i32 %187, 1
  store i32 %188, ptr %13, align 4, !tbaa !8
  call void @llvm.lifetime.end.p0(i64 8, ptr %22) #20
  store i32 0, ptr %11, align 4
  br label %189

189:                                              ; preds = %183, %143, %114
  call void @llvm.lifetime.end.p0(i64 4, ptr %19) #20
  call void @llvm.lifetime.end.p0(i64 4, ptr %17) #20
  call void @llvm.lifetime.end.p0(i64 64, ptr %16) #20
  %190 = load i32, ptr %11, align 4
  switch i32 %190, label %195 [
    i32 0, label %191
  ]

191:                                              ; preds = %189
  br label %192

192:                                              ; preds = %191
  %193 = load i64, ptr %15, align 8, !tbaa !13
  %194 = add i64 %193, 1
  store i64 %194, ptr %15, align 8, !tbaa !13
  br label %51, !llvm.loop !40

195:                                              ; preds = %189, %60
  call void @llvm.lifetime.end.p0(i64 8, ptr %15) #20
  %196 = load i32, ptr %11, align 4
  switch i32 %196, label %199 [
    i32 2, label %197
  ]

197:                                              ; preds = %195
  %198 = load i32, ptr %13, align 4, !tbaa !8
  store i32 %198, ptr %5, align 4
  store i32 1, ptr %11, align 4
  br label %199

199:                                              ; preds = %197, %195
  call void @llvm.lifetime.end.p0(i64 1, ptr %14) #20
  call void @llvm.lifetime.end.p0(i64 4, ptr %13) #20
  call void @llvm.lifetime.end.p0(i64 8, ptr %12) #20
  br label %200

200:                                              ; preds = %199, %45, %28
  call void @llvm.lifetime.end.p0(i64 8, ptr %10) #20
  %201 = load i32, ptr %5, align 4
  ret i32 %201
}