; Function Attrs: mustprogress uwtable
define range(i32 -2147483647, -2147483648) i32 @zmq_recviov(ptr noundef %0, ptr noundef %1, ptr noundef %2, i32 noundef %3) local_unnamed_addr #1 {
  %5 = alloca %struct.zmq_msg_t, align 8
  %.not.i = icmp eq ptr %0, null
  br i1 %.not.i, label %_ZL16as_socket_base_tPv.exit.thread, label %6

6:                                                ; preds = %4
  %7 = tail call noundef zeroext i1 @_ZNK3zmq13socket_base_t9check_tagEv(ptr noundef nonnull align 8 dereferenceable(1825) %0)
  br i1 %7, label %_ZL16as_socket_base_tPv.exit, label %_ZL16as_socket_base_tPv.exit.thread

_ZL16as_socket_base_tPv.exit.thread:              ; preds = %4, %6
  %8 = tail call ptr @__errno_location() #20
  store i32 88, ptr %8, align 4, !tbaa !3
  br label %.thread68

_ZL16as_socket_base_tPv.exit:                     ; preds = %6
  %.not53 = icmp eq ptr %2, null
  br i1 %.not53, label %.critedge, label %9, !prof !10

9:                                                ; preds = %_ZL16as_socket_base_tPv.exit
  %10 = load i64, ptr %2, align 8, !tbaa !7
  %11 = icmp eq i64 %10, 0
  %.not54 = icmp eq ptr %1, null
  %spec.select = or i1 %.not54, %11
  br i1 %spec.select, label %.critedge, label %13, !prof !10

.critedge:                                        ; preds = %_ZL16as_socket_base_tPv.exit, %9
  %12 = tail call ptr @__errno_location() #20
  store i32 22, ptr %12, align 4, !tbaa !3
  br label %.thread68

13:                                               ; preds = %9
  store i64 0, ptr %2, align 8, !tbaa !7
  br label %14

14:                                               ; preds = %13, %55
  %.05079 = phi i64 [ 0, %13 ], [ %58, %55 ]
  call void @llvm.lifetime.start.p0(i64 64, ptr nonnull %5) #22
  %15 = call noundef i32 @_ZN3zmq5msg_t4initEv(ptr noundef nonnull align 8 dereferenceable(64) %5)
  %.not55 = icmp eq i32 %15, 0
  br i1 %.not55, label %24, label %16, !prof !9

16:                                               ; preds = %14
  %17 = tail call ptr @__errno_location() #20
  %18 = load i32, ptr %17, align 4, !tbaa !3
  %19 = call ptr @strerror(i32 noundef %18) #22
  %20 = load ptr, ptr @stderr, align 8, !tbaa !11
  %21 = call i32 (ptr, ptr, ...) @fprintf(ptr noundef %20, ptr noundef nonnull @.str, ptr noundef %19, ptr noundef nonnull @.str.1, i32 noundef 554) #24
  %22 = load ptr, ptr @stderr, align 8, !tbaa !11
  %23 = call i32 @fflush(ptr noundef %22)
  call void @_ZN3zmq9zmq_abortEPKc(ptr noundef %19)
  br label %24

24:                                               ; preds = %16, %14
  %25 = call noundef i32 @_ZN3zmq13socket_base_t4recvEPNS_5msg_tEi(ptr noundef nonnull align 8 dereferenceable(1825) %0, ptr noundef nonnull %5, i32 noundef %3)
  %26 = icmp slt i32 %25, 0
  br i1 %26, label %_ZL9s_recvmsgPN3zmq13socket_base_tEP9zmq_msg_ti.exit.thread, label %_ZL9s_recvmsgPN3zmq13socket_base_tEP9zmq_msg_ti.exit, !prof !10

_ZL9s_recvmsgPN3zmq13socket_base_tEP9zmq_msg_ti.exit: ; preds = %24
  %27 = call noundef i64 @_ZNK3zmq5msg_t4sizeEv(ptr noundef nonnull align 8 dereferenceable(64) %5)
  %28 = call noundef i64 @_ZNK3zmq5msg_t4sizeEv(ptr noundef nonnull align 8 dereferenceable(64) %5)
  %29 = getelementptr inbounds nuw %struct.iovec, ptr %1, i64 %.05079
  %30 = getelementptr inbounds nuw i8, ptr %29, i64 8
  store i64 %28, ptr %30, align 8, !tbaa !14
  %31 = call noalias ptr @malloc(i64 noundef %28) #25
  store ptr %31, ptr %29, align 8, !tbaa !16
  %.not56 = icmp eq ptr %31, null
  br i1 %.not56, label %62, label %42, !prof !10

_ZL9s_recvmsgPN3zmq13socket_base_tEP9zmq_msg_ti.exit.thread: ; preds = %24
  %32 = tail call ptr @__errno_location() #20
  %33 = load i32, ptr %32, align 4, !tbaa !3
  %34 = call noundef i32 @_ZN3zmq5msg_t5closeEv(ptr noundef nonnull align 8 dereferenceable(64) %5)
  %.not58 = icmp eq i32 %34, 0
  br i1 %.not58, label %.thread73, label %35, !prof !9

35:                                               ; preds = %_ZL9s_recvmsgPN3zmq13socket_base_tEP9zmq_msg_ti.exit.thread
  %36 = load i32, ptr %32, align 4, !tbaa !3
  %37 = call ptr @strerror(i32 noundef %36) #22
  %38 = load ptr, ptr @stderr, align 8, !tbaa !11
  %39 = call i32 (ptr, ptr, ...) @fprintf(ptr noundef %38, ptr noundef nonnull @.str, ptr noundef %37, ptr noundef nonnull @.str.1, i32 noundef 560) #24
  %40 = load ptr, ptr @stderr, align 8, !tbaa !11
  %41 = call i32 @fflush(ptr noundef %40)
  call void @_ZN3zmq9zmq_abortEPKc(ptr noundef %37)
  br label %.thread73

.thread73:                                        ; preds = %_ZL9s_recvmsgPN3zmq13socket_base_tEP9zmq_msg_ti.exit.thread, %35
  store i32 %33, ptr %32, align 4, !tbaa !3
  call void @llvm.lifetime.end.p0(i64 64, ptr nonnull %5) #22
  br label %.thread68

42:                                               ; preds = %_ZL9s_recvmsgPN3zmq13socket_base_tEP9zmq_msg_ti.exit
  %43 = call noundef ptr @_ZN3zmq5msg_t4dataEv(ptr noundef nonnull align 8 dereferenceable(64) %5)
  %44 = load i64, ptr %30, align 8, !tbaa !14
  call void @llvm.memcpy.p0.p0.i64(ptr nonnull align 1 %31, ptr align 1 %43, i64 %44, i1 false)
  %45 = call noundef zeroext i8 @_ZNK3zmq5msg_t5flagsEv(ptr noundef nonnull align 8 dereferenceable(64) %5)
  %46 = call noundef i32 @_ZN3zmq5msg_t5closeEv(ptr noundef nonnull align 8 dereferenceable(64) %5)
  %.not57 = icmp eq i32 %46, 0
  br i1 %.not57, label %55, label %47, !prof !9

47:                                               ; preds = %42
  %48 = tail call ptr @__errno_location() #20
  %49 = load i32, ptr %48, align 4, !tbaa !3
  %50 = call ptr @strerror(i32 noundef %49) #22
  %51 = load ptr, ptr @stderr, align 8, !tbaa !11
  %52 = call i32 (ptr, ptr, ...) @fprintf(ptr noundef %51, ptr noundef nonnull @.str, ptr noundef %50, ptr noundef nonnull @.str.1, i32 noundef 578) #24
  %53 = load ptr, ptr @stderr, align 8, !tbaa !11
  %54 = call i32 @fflush(ptr noundef %53)
  call void @_ZN3zmq9zmq_abortEPKc(ptr noundef %50)
  br label %55

55:                                               ; preds = %47, %42
  %56 = load i64, ptr %2, align 8, !tbaa !7
  %57 = add i64 %56, 1
  store i64 %57, ptr %2, align 8, !tbaa !7
  %58 = add nuw i64 %.05079, 1
  call void @llvm.lifetime.end.p0(i64 64, ptr nonnull %5) #22
  %59 = trunc i8 %45 to i1
  %60 = icmp ult i64 %58, %10
  %61 = select i1 %59, i1 %60, i1 false
  br i1 %61, label %14, label %.thread68.loopexit, !llvm.loop !19

62:                                               ; preds = %_ZL9s_recvmsgPN3zmq13socket_base_tEP9zmq_msg_ti.exit
  %63 = tail call ptr @__errno_location() #20
  store i32 12, ptr %63, align 4, !tbaa !3
  call void @llvm.lifetime.end.p0(i64 64, ptr nonnull %5) #22
  br label %.thread68

.thread68.loopexit:                               ; preds = %55
  %indvars = trunc i64 %58 to i32
  br label %.thread68

.thread68:                                        ; preds = %.thread68.loopexit, %62, %.thread73, %_ZL16as_socket_base_tPv.exit.thread, %.critedge
  %.0 = phi i32 [ -1, %.critedge ], [ -1, %_ZL16as_socket_base_tPv.exit.thread ], [ -1, %62 ], [ -1, %.thread73 ], [ %indvars, %.thread68.loopexit ]
  ret i32 %.0
}